Certificate:
    Data:
        Version: 3 (0x2)
        Serial Number: 4 (0x4)
    Signature Algorithm: sha256WithRSAEncryption
        Issuer: C=CN, ST=BJ, L=BeiJing, O=MyTerm, OU=Developer, CN=MyTerm CA/name=EasyRSA/emailAddress=merle.liukun@gmail.com
        Validity
            Not Before: Jan  3 02:48:07 2018 GMT
            Not After : Jan  1 02:48:07 2028 GMT
        Subject: C=CN, ST=BJ, L=BeiJing, O=MyTerm, OU=Developer, CN=laidu/name=EasyRSA/emailAddress=laidu823@163.com
        Subject Public Key Info:
            Public Key Algorithm: rsaEncryption
                Public-Key: (2048 bit)
                Modulus:
                    00:c8:9d:bb:c0:71:e0:e0:d0:5f:0a:7f:84:4e:98:
                    c8:2e:c4:04:d0:65:9a:b1:28:e7:47:37:eb:61:aa:
                    20:44:30:64:a5:01:13:34:db:1b:6a:30:dc:8c:01:
                    d6:b3:cb:09:85:ee:eb:07:14:f7:83:a8:c3:fb:6d:
                    ae:99:fa:ce:21:a8:cb:5b:f8:89:bf:30:7f:15:ee:
                    0f:ce:28:dd:28:92:8f:f5:3b:7c:5b:fe:4c:5e:e3:
                    3b:2d:e6:80:ab:3e:4a:3b:46:1a:ea:eb:62:c5:ea:
                    db:2d:91:59:e6:ee:3d:ef:4f:7e:77:15:40:23:86:
                    74:85:4a:07:c4:5f:89:5b:c0:09:58:80:ca:be:fa:
                    e2:64:09:e7:fb:2a:0e:d0:21:15:11:74:e1:12:69:
                    09:0e:7a:b5:f0:c4:df:d9:c9:30:e2:e0:c7:e0:74:
                    8f:cc:b6:71:a0:34:46:a6:2a:df:5e:c6:ea:2a:30:
                    eb:e5:e7:71:d9:fe:5f:85:c7:40:a4:20:f6:4f:77:
                    e9:1e:7f:02:44:21:e6:ae:f5:ad:3b:53:7f:4c:0b:
                    55:61:ff:56:9b:4e:8b:e8:77:8c:38:77:af:8f:e8:
                    42:da:da:71:8b:95:9c:26:dd:56:31:ed:e8:95:42:
                    f1:9c:6c:82:77:40:d8:75:8f:30:0c:cc:9e:0c:8d:
                    69:a9
                Exponent: 65537 (0x10001)
        X509v3 extensions:
            X509v3 Basic Constraints: 
                CA:FALSE
            Netscape Comment: 
                Easy-RSA Generated Certificate
            X509v3 Subject Key Identifier: 
                1F:A8:90:9B:91:3A:3D:C6:AC:92:FA:D6:EE:D5:9F:13:B6:50:69:0A
            X509v3 Authority Key Identifier: 
                keyid:4A:01:BB:1B:BA:04:71:0B:8B:55:CE:77:9F:89:05:7F:8A:9A:05:1B
                DirName:/C=CN/ST=BJ/L=BeiJing/O=MyTerm/OU=Developer/CN=MyTerm CA/name=EasyRSA/emailAddress=merle.liukun@gmail.com
                serial:87:7B:A7:5B:F2:52:EC:DC

            X509v3 Extended Key Usage: 
                TLS Web Client Authentication
            X509v3 Key Usage: 
                Digital Signature
    Signature Algorithm: sha256WithRSAEncryption
         29:a1:26:6e:f6:e0:67:d6:8b:09:31:08:7c:5e:32:f8:dd:6a:
         25:77:06:3e:f8:82:b4:e9:f3:5f:af:bc:56:83:61:4b:31:17:
         96:58:08:ff:a0:e6:bd:4e:f0:29:e2:d0:bb:51:95:79:af:6a:
         e6:7c:65:bb:07:b0:72:66:db:65:e7:20:df:df:73:78:9a:65:
         2a:a5:ef:a5:4c:09:93:c5:91:5a:ea:bd:38:21:bc:29:e9:77:
         4a:ca:f9:30:d9:64:9e:87:63:47:59:df:b4:58:83:a0:f1:ae:
         10:b8:cb:9e:ee:67:bb:77:d6:20:fe:cd:41:62:b0:04:c1:cd:
         28:29:70:ac:55:4f:f0:66:69:f0:6e:5b:af:1c:56:17:13:86:
         41:cd:8d:eb:5a:e8:01:3a:3d:a6:5f:f4:ba:f7:6e:3a:3c:23:
         2e:f1:87:80:4c:e7:58:6a:c4:b0:4d:b6:e4:ea:e4:b6:4a:44:
         ea:cd:a9:7e:8c:a3:01:62:24:28:61:d5:cb:5c:ef:94:77:f5:
         2a:2b:97:e2:52:0d:c2:95:eb:55:2d:ff:0a:6d:6e:2b:1c:a3:
         92:6b:53:24:d6:9a:b1:92:66:ff:83:c9:c0:a0:97:7f:1f:d4:
         55:c7:25:c0:99:9a:20:c5:d6:ae:df:fc:63:9d:a6:a5:01:84:
         90:e9:eb:7d
-----BEGIN CERTIFICATE-----
MIIFBjCCA+6gAwIBAgIBBDANBgkqhkiG9w0BAQsFADCBnjELMAkGA1UEBhMCQ04x
CzAJBgNVBAgTAkJKMRAwDgYDVQQHEwdCZWlKaW5nMQ8wDQYDVQQKEwZNeVRlcm0x
EjAQBgNVBAsTCURldmVsb3BlcjESMBAGA1UEAxMJTXlUZXJtIENBMRAwDgYDVQQp
EwdFYXN5UlNBMSUwIwYJKoZIhvcNAQkBFhZtZXJsZS5saXVrdW5AZ21haWwuY29t
MB4XDTE4MDEwMzAyNDgwN1oXDTI4MDEwMTAyNDgwN1owgZQxCzAJBgNVBAYTAkNO
MQswCQYDVQQIEwJCSjEQMA4GA1UEBxMHQmVpSmluZzEPMA0GA1UEChMGTXlUZXJt
MRIwEAYDVQQLEwlEZXZlbG9wZXIxDjAMBgNVBAMTBWxhaWR1MRAwDgYDVQQpEwdF
YXN5UlNBMR8wHQYJKoZIhvcNAQkBFhBsYWlkdTgyM0AxNjMuY29tMIIBIjANBgkq
hkiG9w0BAQEFAAOCAQ8AMIIBCgKCAQEAyJ27wHHg4NBfCn+ETpjILsQE0GWasSjn
RzfrYaogRDBkpQETNNsbajDcjAHWs8sJhe7rBxT3g6jD+22umfrOIajLW/iJvzB/
Fe4PzijdKJKP9Tt8W/5MXuM7LeaAqz5KO0Ya6utixerbLZFZ5u49709+dxVAI4Z0
hUoHxF+JW8AJWIDKvvriZAnn+yoO0CEVEXThEmkJDnq18MTf2ckw4uDH4HSPzLZx
oDRGpirfXsbqKjDr5edx2f5fhcdApCD2T3fpHn8CRCHmrvWtO1N/TAtVYf9Wm06L
6HeMOHevj+hC2tpxi5WcJt1WMe3olULxnGyCd0DYdY8wDMyeDI1pqQIDAQABo4IB
VTCCAVEwCQYDVR0TBAIwADAtBglghkgBhvhCAQ0EIBYeRWFzeS1SU0EgR2VuZXJh
dGVkIENlcnRpZmljYXRlMB0GA1UdDgQWBBQfqJCbkTo9xqyS+tbu1Z8TtlBpCjCB
0wYDVR0jBIHLMIHIgBRKAbsbugRxC4tVznefiQV/ipoFG6GBpKSBoTCBnjELMAkG
A1UEBhMCQ04xCzAJBgNVBAgTAkJKMRAwDgYDVQQHEwdCZWlKaW5nMQ8wDQYDVQQK
EwZNeVRlcm0xEjAQBgNVBAsTCURldmVsb3BlcjESMBAGA1UEAxMJTXlUZXJtIENB
MRAwDgYDVQQpEwdFYXN5UlNBMSUwIwYJKoZIhvcNAQkBFhZtZXJsZS5saXVrdW5A
Z21haWwuY29tggkAh3unW/JS7NwwEwYDVR0lBAwwCgYIKwYBBQUHAwIwCwYDVR0P
BAQDAgeAMA0GCSqGSIb3DQEBCwUAA4IBAQApoSZu9uBn1osJMQh8XjL43WoldwY+
+IK06fNfr7xWg2FLMReWWAj/oOa9TvAp4tC7UZV5r2rmfGW7B7ByZttl5yDf33N4
mmUqpe+lTAmTxZFa6r04Ibwp6XdKyvkw2WSeh2NHWd+0WIOg8a4QuMue7me7d9Yg
/s1BYrAEwc0oKXCsVU/wZmnwbluvHFYXE4ZBzY3rWugBOj2mX/S69246PCMu8YeA
TOdYasSwTbbk6uS2SkTqzal+jKMBYiQoYdXLXO+Ud/UqK5fiUg3CletVLf8KbW4r
HKOSa1Mk1pqxkmb/g8nAoJd/H9RVxyXAmZogxdau3/xjnaalAYSQ6et9
-----END CERTIFICATE-----
